target datalayout = "e-m:e-p270:32:32-p271:32:32-p272:64:64-i64:64-i128:128-f80:128-n8:16:32:64-S128"
target triple = "x86_64-pc-linux-gnu"

%struct.Dch_Man_t_ = type { ptr, ptr, ptr, ptr, ptr, ptr, i32, ptr, ptr, i32, i32, ptr, ptr, ptr, i32, i32, i32, i32, i32, i32, i32, i32, i32, i32, i32, i64, i64, i64, i64, i64, i64, i64, i64, i64 }
%struct.Aig_Man_t_ = type { ptr, ptr, ptr, ptr, ptr, ptr, ptr, %struct.Aig_Obj_t_, i32, i32, i32, i32, i32, i32, [7 x i32], i32, ptr, i32, ptr, i32, ptr, i32, i32, i32, ptr, i32, i32, i32, i32, i32, ptr, ptr, i32, ptr, ptr, i32, ptr, ptr, i32, i32, i32, ptr, ptr, ptr, ptr, ptr, ptr, ptr, ptr, ptr, ptr, ptr, ptr, ptr, ptr, i32, ptr, ptr, ptr, ptr, i32, i64, i64, i64, ptr, ptr }
%struct.Aig_Obj_t_ = type { %union.anon, ptr, ptr, i64, i32, i32, %union.anon.0 }
%union.anon = type { ptr }
%union.anon.0 = type { ptr }
%struct.Vec_Ptr_t_ = type { i32, i32, ptr }
%struct.Dch_Pars_t_ = type { i32, i32, i32, i32, i32, i32, i32, i32, i32, i32, i32, i32, i32, i32, i64, i32, i32 }

; Function Attrs: inlinehint nounwind uwtable
define internal ptr @Aig_ManConst1(ptr noundef %0) #6 {
  %2 = alloca ptr, align 8
  store ptr %0, ptr %2, align 8, !tbaa !3
  %3 = load ptr, ptr %2, align 8, !tbaa !3
  %4 = getelementptr inbounds nuw %struct.Aig_Man_t_, ptr %3, i32 0, i32 6
  %5 = load ptr, ptr %4, align 8, !tbaa !82
  ret ptr %5
}

; Function Attrs: inlinehint nounwind uwtable
define internal i32 @lit_neg(i32 noundef %0) #6 {
  %2 = alloca i32, align 4
  store i32 %0, ptr %2, align 4, !tbaa !38
  %3 = load i32, ptr %2, align 4, !tbaa !38
  %4 = xor i32 %3, 1
  ret i32 %4
}

; Function Attrs: inlinehint nounwind uwtable
define internal i32 @toLit(i32 noundef %0) #6 {
  %2 = alloca i32, align 4
  store i32 %0, ptr %2, align 4, !tbaa !38
  %3 = load i32, ptr %2, align 4, !tbaa !38
  %4 = load i32, ptr %2, align 4, !tbaa !38
  %5 = add nsw i32 %3, %4
  ret i32 %5
}

; Function Attrs: inlinehint nounwind uwtable
define internal void @Vec_PtrClear(ptr noundef %0) #6 {
  %2 = alloca ptr, align 8
  store ptr %0, ptr %2, align 8, !tbaa !39
  %3 = load ptr, ptr %2, align 8, !tbaa !39
  %4 = getelementptr inbounds nuw %struct.Vec_Ptr_t_, ptr %3, i32 0, i32 1
  store i32 0, ptr %4, align 4, !tbaa !40
  ret void
}

; Function Attrs: inlinehint nounwind uwtable
define internal void @Dch_ObjSetSatNum(ptr noundef %0, ptr noundef %1, i32 noundef %2) #6 {
  %4 = alloca ptr, align 8
  %5 = alloca ptr, align 8
  %6 = alloca i32, align 4
  store ptr %0, ptr %4, align 8, !tbaa !10
  store ptr %1, ptr %5, align 8, !tbaa !75
  store i32 %2, ptr %6, align 4, !tbaa !38
  %7 = load i32, ptr %6, align 4, !tbaa !38
  %8 = load ptr, ptr %4, align 8, !tbaa !10
  %9 = getelementptr inbounds nuw %struct.Dch_Man_t_, ptr %8, i32 0, i32 7
  %10 = load ptr, ptr %9, align 8, !tbaa !23
  %11 = load ptr, ptr %5, align 8, !tbaa !75
  %12 = getelementptr inbounds nuw %struct.Aig_Obj_t_, ptr %11, i32 0, i32 5
  %13 = load i32, ptr %12, align 4, !tbaa !81
  %14 = sext i32 %13 to i64
  %15 = getelementptr inbounds i32, ptr %10, i64 %14
  store i32 %7, ptr %15, align 4, !tbaa !38
  ret void
}

; Function Attrs: inlinehint nounwind uwtable
define internal ptr @Vec_PtrEntry(ptr noundef %0, i32 noundef %1) #6 {
  %3 = alloca ptr, align 8
  %4 = alloca i32, align 4
  store ptr %0, ptr %3, align 8, !tbaa !39
  store i32 %1, ptr %4, align 4, !tbaa !38
  %5 = load ptr, ptr %3, align 8, !tbaa !39
  %6 = getelementptr inbounds nuw %struct.Vec_Ptr_t_, ptr %5, i32 0, i32 2
  %7 = load ptr, ptr %6, align 8, !tbaa !43
  %8 = load i32, ptr %4, align 4, !tbaa !38
  %9 = sext i32 %8 to i64
  %10 = getelementptr inbounds ptr, ptr %7, i64 %9
  %11 = load ptr, ptr %10, align 8, !tbaa !80
  ret ptr %11
}

; Function Attrs: inlinehint nounwind uwtable
define internal i32 @Vec_PtrSize(ptr noundef %0) #6 {
  %2 = alloca ptr, align 8
  store ptr %0, ptr %2, align 8, !tbaa !39
  %3 = load ptr, ptr %2, align 8, !tbaa !39
  %4 = getelementptr inbounds nuw %struct.Vec_Ptr_t_, ptr %3, i32 0, i32 1
  %5 = load i32, ptr %4, align 4, !tbaa !40
  ret i32 %5
}

; Function Attrs: nounwind uwtable
define void @Dch_ManSatSolverRecycle(ptr noundef %0) #0 {
  %2 = alloca ptr, align 8
  %3 = alloca i32, align 4
  %4 = alloca ptr, align 8
  %5 = alloca i32, align 4
  store ptr %0, ptr %2, align 8, !tbaa !10
  call void @llvm.lifetime.start.p0(i64 4, ptr %3) #10
  %6 = load ptr, ptr %2, align 8, !tbaa !10
  %7 = getelementptr inbounds nuw %struct.Dch_Man_t_, ptr %6, i32 0, i32 5
  %8 = load ptr, ptr %7, align 8, !tbaa !74
  %9 = icmp ne ptr %8, null
  br i1 %9, label %10, label %39

10:                                               ; preds = %1
  call void @llvm.lifetime.start.p0(i64 8, ptr %4) #10
  call void @llvm.lifetime.start.p0(i64 4, ptr %5) #10
  store i32 0, ptr %5, align 4, !tbaa !38
  br label %11

11:                                               ; preds = %29, %10
  %12 = load i32, ptr %5, align 4, !tbaa !38
  %13 = load ptr, ptr %2, align 8, !tbaa !10
  %14 = getelementptr inbounds nuw %struct.Dch_Man_t_, ptr %13, i32 0, i32 8
  %15 = load ptr, ptr %14, align 8, !tbaa !24
  %16 = call i32 @Vec_PtrSize(ptr noundef %15)
  %17 = icmp slt i32 %12, %16
  br i1 %17, label %18, label %24

18:                                               ; preds = %11
  %19 = load ptr, ptr %2, align 8, !tbaa !10
  %20 = getelementptr inbounds nuw %struct.Dch_Man_t_, ptr %19, i32 0, i32 8
  %21 = load ptr, ptr %20, align 8, !tbaa !24
  %22 = load i32, ptr %5, align 4, !tbaa !38
  %23 = call ptr @Vec_PtrEntry(ptr noundef %21, i32 noundef %22)
  store ptr %23, ptr %4, align 8, !tbaa !75
  br label %24

24:                                               ; preds = %18, %11
  %25 = phi i1 [ false, %11 ], [ true, %18 ]
  br i1 %25, label %26, label %32

26:                                               ; preds = %24
  %27 = load ptr, ptr %2, align 8, !tbaa !10
  %28 = load ptr, ptr %4, align 8, !tbaa !75
  call void @Dch_ObjSetSatNum(ptr noundef %27, ptr noundef %28, i32 noundef 0)
  br label %29

29:                                               ; preds = %26
  %30 = load i32, ptr %5, align 4, !tbaa !38
  %31 = add nsw i32 %30, 1
  store i32 %31, ptr %5, align 4, !tbaa !38
  br label %11, !llvm.loop !76

32:                                               ; preds = %24
  %33 = load ptr, ptr %2, align 8, !tbaa !10
  %34 = getelementptr inbounds nuw %struct.Dch_Man_t_, ptr %33, i32 0, i32 8
  %35 = load ptr, ptr %34, align 8, !tbaa !24
  call void @Vec_PtrClear(ptr noundef %35)
  %36 = load ptr, ptr %2, align 8, !tbaa !10
  %37 = getelementptr inbounds nuw %struct.Dch_Man_t_, ptr %36, i32 0, i32 5
  %38 = load ptr, ptr %37, align 8, !tbaa !74
  call void @sat_solver_delete(ptr noundef %38)
  call void @llvm.lifetime.end.p0(i64 4, ptr %5) #10
  call void @llvm.lifetime.end.p0(i64 8, ptr %4) #10
  br label %39

39:                                               ; preds = %32, %1
  %40 = call ptr @sat_solver_new()
  %41 = load ptr, ptr %2, align 8, !tbaa !10
  %42 = getelementptr inbounds nuw %struct.Dch_Man_t_, ptr %41, i32 0, i32 5
  store ptr %40, ptr %42, align 8, !tbaa !74
  %43 = load ptr, ptr %2, align 8, !tbaa !10
  %44 = getelementptr inbounds nuw %struct.Dch_Man_t_, ptr %43, i32 0, i32 5
  %45 = load ptr, ptr %44, align 8, !tbaa !74
  call void @sat_solver_setnvars(ptr noundef %45, i32 noundef 1000)
  %46 = load ptr, ptr %2, align 8, !tbaa !10
  %47 = getelementptr inbounds nuw %struct.Dch_Man_t_, ptr %46, i32 0, i32 6
  store i32 1, ptr %47, align 8, !tbaa !22
  %48 = load ptr, ptr %2, align 8, !tbaa !10
  %49 = getelementptr inbounds nuw %struct.Dch_Man_t_, ptr %48, i32 0, i32 6
  %50 = load i32, ptr %49, align 8, !tbaa !22
  %51 = call i32 @toLit(i32 noundef %50)
  store i32 %51, ptr %3, align 4, !tbaa !38
  %52 = load ptr, ptr %2, align 8, !tbaa !10
  %53 = getelementptr inbounds nuw %struct.Dch_Man_t_, ptr %52, i32 0, i32 0
  %54 = load ptr, ptr %53, align 8, !tbaa !12
  %55 = getelementptr inbounds nuw %struct.Dch_Pars_t_, ptr %54, i32 0, i32 4
  %56 = load i32, ptr %55, align 8, !tbaa !78
  %57 = icmp ne i32 %56, 0
  br i1 %57, label %58, label %61

58:                                               ; preds = %39
  %59 = load i32, ptr %3, align 4, !tbaa !38
  %60 = call i32 @lit_neg(i32 noundef %59)
  store i32 %60, ptr %3, align 4, !tbaa !38
  br label %61

61:                                               ; preds = %58, %39
  %62 = load ptr, ptr %2, align 8, !tbaa !10
  %63 = getelementptr inbounds nuw %struct.Dch_Man_t_, ptr %62, i32 0, i32 5
  %64 = load ptr, ptr %63, align 8, !tbaa !74
  %65 = getelementptr inbounds i32, ptr %3, i64 1
  %66 = call i32 @sat_solver_addclause(ptr noundef %64, ptr noundef %3, ptr noundef %65)
  %67 = load ptr, ptr %2, align 8, !tbaa !10
  %68 = load ptr, ptr %2, align 8, !tbaa !10
  %69 = getelementptr inbounds nuw %struct.Dch_Man_t_, ptr %68, i32 0, i32 2
  %70 = load ptr, ptr %69, align 8, !tbaa !72
  %71 = call ptr @Aig_ManConst1(ptr noundef %70)
  %72 = load ptr, ptr %2, align 8, !tbaa !10
  %73 = getelementptr inbounds nuw %struct.Dch_Man_t_, ptr %72, i32 0, i32 6
  %74 = load i32, ptr %73, align 8, !tbaa !22
  %75 = add nsw i32 %74, 1
  store i32 %75, ptr %73, align 8, !tbaa !22
  call void @Dch_ObjSetSatNum(ptr noundef %67, ptr noundef %71, i32 noundef %74)
  %76 = load ptr, ptr %2, align 8, !tbaa !10
  %77 = getelementptr inbounds nuw %struct.Dch_Man_t_, ptr %76, i32 0, i32 9
  %78 = load i32, ptr %77, align 8, !tbaa !49
  %79 = add nsw i32 %78, 1
  store i32 %79, ptr %77, align 8, !tbaa !49
  %80 = load ptr, ptr %2, align 8, !tbaa !10
  %81 = getelementptr inbounds nuw %struct.Dch_Man_t_, ptr %80, i32 0, i32 10
  store i32 0, ptr %81, align 4, !tbaa !79
  call void @llvm.lifetime.end.p0(i64 4, ptr %3) #10
  ret void
}