; Function Attrs: nounwind uwtable
define void @Dch_ManSatSolverRecycle(ptr noundef captures(none) %0) local_unnamed_addr #0 {
  %2 = alloca i32, align 4
  call void @llvm.lifetime.start.p0(i64 4, ptr nonnull %2) #10
  %3 = getelementptr inbounds nuw i8, ptr %0, i64 40
  %4 = load ptr, ptr %3, align 8, !tbaa !70
  %.not = icmp eq ptr %4, null
  br i1 %.not, label %19, label %.preheader

.preheader:                                       ; preds = %1
  %5 = getelementptr inbounds nuw i8, ptr %0, i64 64
  %6 = load ptr, ptr %5, align 8, !tbaa !33
  %7 = getelementptr i8, ptr %6, i64 4
  %.val28 = load i32, ptr %7, align 4, !tbaa !28
  %8 = icmp sgt i32 %.val28, 0
  br i1 %8, label %.lr.ph, label %.critedge

.lr.ph:                                           ; preds = %.preheader
  %9 = getelementptr i8, ptr %6, i64 8
  %.val21 = load ptr, ptr %9, align 8, !tbaa !32
  %10 = getelementptr i8, ptr %0, i64 56
  %.val22 = load ptr, ptr %10, align 8, !tbaa !30
  br label %11

11:                                               ; preds = %.lr.ph, %11
  %indvars.iv = phi i64 [ 0, %.lr.ph ], [ %indvars.iv.next, %11 ]
  %12 = getelementptr inbounds nuw ptr, ptr %.val21, i64 %indvars.iv
  %13 = load ptr, ptr %12, align 8, !tbaa !71
  %14 = getelementptr i8, ptr %13, i64 36
  %.val23 = load i32, ptr %14, align 4, !tbaa !72
  %15 = sext i32 %.val23 to i64
  %16 = getelementptr inbounds i32, ptr %.val22, i64 %15
  store i32 0, ptr %16, align 4, !tbaa !38
  %indvars.iv.next = add nuw nsw i64 %indvars.iv, 1
  %.val = load i32, ptr %7, align 4, !tbaa !28
  %17 = sext i32 %.val to i64
  %18 = icmp slt i64 %indvars.iv.next, %17
  br i1 %18, label %11, label %.critedge, !llvm.loop !73

.critedge:                                        ; preds = %11, %.preheader
  store i32 0, ptr %7, align 4, !tbaa !28
  tail call void @sat_solver_delete(ptr noundef nonnull %4) #10
  br label %19

19:                                               ; preds = %.critedge, %1
  %20 = tail call ptr @sat_solver_new() #10
  store ptr %20, ptr %3, align 8, !tbaa !70
  tail call void @sat_solver_setnvars(ptr noundef %20, i32 noundef 1000) #10
  %21 = getelementptr inbounds nuw i8, ptr %0, i64 48
  store i32 1, ptr %21, align 8, !tbaa !18
  %22 = load ptr, ptr %0, align 8, !tbaa !3
  %23 = getelementptr inbounds nuw i8, ptr %22, i64 16
  %24 = load i32, ptr %23, align 8, !tbaa !75
  %.not20 = icmp eq i32 %24, 0
  %spec.store.select = select i1 %.not20, i32 2, i32 3
  store i32 %spec.store.select, ptr %2, align 4
  %25 = load ptr, ptr %3, align 8, !tbaa !70
  %26 = getelementptr inbounds nuw i8, ptr %2, i64 4
  %27 = call i32 @sat_solver_addclause(ptr noundef %25, ptr noundef nonnull %2, ptr noundef nonnull %26) #10
  %28 = getelementptr inbounds nuw i8, ptr %0, i64 16
  %29 = load ptr, ptr %28, align 8, !tbaa !68
  %30 = getelementptr i8, ptr %29, i64 48
  %.val26 = load ptr, ptr %30, align 8, !tbaa !76
  %31 = load i32, ptr %21, align 8, !tbaa !18
  %32 = add nsw i32 %31, 1
  store i32 %32, ptr %21, align 8, !tbaa !18
  %33 = getelementptr i8, ptr %0, i64 56
  %.val24 = load ptr, ptr %33, align 8, !tbaa !30
  %34 = getelementptr i8, ptr %.val26, i64 36
  %.val25 = load i32, ptr %34, align 4, !tbaa !72
  %35 = sext i32 %.val25 to i64
  %36 = getelementptr inbounds i32, ptr %.val24, i64 %35
  store i32 %31, ptr %36, align 4, !tbaa !38
  %37 = getelementptr inbounds nuw i8, ptr %0, i64 72
  %38 = load i32, ptr %37, align 8, !tbaa !44
  %39 = add nsw i32 %38, 1
  store i32 %39, ptr %37, align 8, !tbaa !44
  %40 = getelementptr inbounds nuw i8, ptr %0, i64 76
  store i32 0, ptr %40, align 4, !tbaa !77
  call void @llvm.lifetime.end.p0(i64 4, ptr nonnull %2) #10
  ret void
}